; Function Attrs: nounwind uwtable
define ptr @l_Lean_PrettyPrinter_Delaborator_TopDownAnalyze_analyzeAppStagedCore_analyzeArg___lambda__4___boxed(ptr noundef %0, ptr noundef %1, ptr noundef %2, ptr noundef %3, ptr noundef %4, ptr noundef %5, ptr noundef %6, ptr noundef %7, ptr noundef %8, ptr noundef %9, ptr noundef %10, ptr noundef %11, ptr noundef %12, ptr noundef %13) local_unnamed_addr #1 {
  %15 = ptrtoint ptr %3 to i64
  %16 = lshr i64 %15, 1
  %17 = trunc i64 %16 to i8
  %18 = and i64 %15, 1
  %.not = icmp eq i64 %18, 0
  br i1 %.not, label %19, label %lean_dec.exit17

19:                                               ; preds = %14
  %20 = load i32, ptr %3, align 4, !tbaa !8
  %21 = icmp sgt i32 %20, 1
  br i1 %21, label %22, label %24, !prof !13

22:                                               ; preds = %19
  %23 = add nsw i32 %20, -1
  store i32 %23, ptr %3, align 4, !tbaa !8
  br label %lean_dec.exit17

24:                                               ; preds = %19
  %.not.i = icmp eq i32 %20, 0
  br i1 %.not.i, label %lean_dec.exit17, label %25

25:                                               ; preds = %24
  tail call void @lean_dec_ref_cold(ptr noundef nonnull %3) #7
  br label %lean_dec.exit17

lean_dec.exit17:                                  ; preds = %25, %24, %22, %14
  %26 = tail call ptr @l_Lean_PrettyPrinter_Delaborator_TopDownAnalyze_analyzeAppStagedCore_analyzeArg___lambda__4(ptr noundef %0, ptr noundef %1, ptr noundef %2, i8 noundef zeroext %17, ptr noundef %4, ptr noundef %5, ptr noundef %6, ptr noundef %7, ptr noundef %8, ptr noundef %9, ptr noundef %10, ptr noundef %11, ptr noundef %12, ptr noundef %13)
  %27 = ptrtoint ptr %0 to i64
  %28 = and i64 %27, 1
  %.not20 = icmp eq i64 %28, 0
  br i1 %.not20, label %29, label %lean_dec.exit

29:                                               ; preds = %lean_dec.exit17
  %30 = load i32, ptr %0, align 4, !tbaa !8
  %31 = icmp sgt i32 %30, 1
  br i1 %31, label %32, label %34, !prof !13

32:                                               ; preds = %29
  %33 = add nsw i32 %30, -1
  store i32 %33, ptr %0, align 4, !tbaa !8
  br label %lean_dec.exit

34:                                               ; preds = %29
  %.not.i18 = icmp eq i32 %30, 0
  br i1 %.not.i18, label %lean_dec.exit, label %35

35:                                               ; preds = %34
  tail call void @lean_dec_ref_cold(ptr noundef nonnull %0) #7
  br label %lean_dec.exit

lean_dec.exit:                                    ; preds = %35, %34, %32, %lean_dec.exit17
  ret ptr %26
}